(dp1
S'113354'
p2
(dp3
S'C-Size'
p4
F0.090909090909090912
sS'C-Density'
p5
F0.15289912108093928
sS'C-Hierarchy'
p6
F0.072935561812726299
sS'C-Index'
p7
F0.31674377380275648
ssS'235950'
p8
(dp9
g4
F0.125
sg5
F0.1869791666666667
sg6
F0.082478298611111098
sg7
F0.39445746527777781
ssS'235018'
p10
(dp11
g4
F0.083333333333333356
sg5
F0.10925925925925926
sg6
F0.047453703703703706
sg7
F0.24004629629629631
ssS'231679'
p12
(dp13
g4
F0.20000000000000004
sg5
F0.31200000000000006
sg6
F0.12600000000000003
sg7
F0.63800000000000012
ssS'231678'
p14
(dp15
g4
F0.071428571428571425
sg5
F0.10150631681243924
sg6
F0.050555266324216745
sg7
F0.22349015456522742
ssS'231677'
p16
(dp17
g4
F0.33333333333333331
sg5
F0.37037037037037035
sg6
F0.13580246913580246
sg7
F0.83950617283950613
ssS'231674'
p18
(dp19
g4
F0.0625
sg5
F0.069791666666666669
sg6
F0.027899305555555556
sg7
F0.16019097222222223
ssS'234672'
p20
(dp21
g4
F0.066666666666666666
sg5
F0.10420105820105821
sg6
F0.04626741622574955
sg7
F0.21713514109347443
ssS'232566'
p22
(dp23
g4
F0.125
sg5
F0.14218749999999999
sg6
F0.055820312499999997
sg7
F0.32300781249999999
ssS'231683'
p24
(dp25
g4
F0.083333333333333356
sg5
F0.1074074074074074
sg6
F0.045204475308641974
sg7
F0.23594521604938273
ssS'222842'
p26
(dp27
g4
F0.071428571428571425
sg5
F0.10938613540654353
sg6
F0.053625762285261801
sg7
F0.23444046912037678
ssS'231687'
p28
(dp29
g4
F0.10000000000000003
sg5
F0.14133333333333337
sg6
F0.059405555555555566
sg7
F0.30073888888888894
ssS'231684'
p30
(dp31
g4
F0.10000000000000003
sg5
F0.13795238095238099
sg6
F0.065586564625850344
sg7
F0.30353894557823136
ssS'231728'
p32
(dp33
g4
F0.16666666666666669
sg5
F0.12962962962962962
sg6
F0.044753086419753091
sg7
F0.34104938271604934
ssS'174990'
p34
(dp35
g4
F0.1111111111111111
sg5
F0.17854203409758965
sg6
F0.079846238907085476
sg7
F0.36949938411578626
ssS'231689'
p36
(dp37
g4
F0.33333333333333331
sg5
F0.37037037037037035
sg6
F0.13580246913580246
sg7
F0.83950617283950613
ssS'235949'
p38
(dp39
g4
F0.16666666666666669
sg5
F0.22499999999999998
sg6
F0.09221450617283948
sg7
F0.48388117283950616
ssS'235948'
p40
(dp41
g4
F0.090909090909090912
sg5
F0.1478682933228388
sg6
F0.073769273855853953
sg7
F0.31254665808778365
ssS'235780'
p42
(dp43
g4
F0.25
sg5
F0.32291666666666663
sg6
F0.13151041666666663
sg7
F0.70442708333333326
ssS'201423'
p44
(dp45
g4
F0.20000000000000004
sg5
F0.20666666666666667
sg6
F0.084166666666666667
sg7
F0.4908333333333334
ssS'235385'
p46
(dp47
g4
F0.083333333333333356
sg5
F0.11701388888888888
sg6
F0.064688946759259236
sg7
F0.26503616898148147
ssS'232218'
p48
(dp49
g4
F0.0625
sg5
F0.10231274801587301
sg6
F0.052280375547209622
sg7
F0.21709312356308264
ssS'232213'
p50
(dp51
g4
F0.125
sg5
F0.1328125
sg6
F0.047634548611111105
sg7
F0.3054470486111111
ssS'231393'
p52
(dp53
g4
F0.0625
sg5
F0.10467171717171715
sg6
F0.051667620710737439
sg7
F0.21883933788245458
ssS'231394'
p54
(dp55
g4
F0.083333333333333356
sg5
F0.12612433862433861
sg6
F0.054539714033761642
sg7
F0.26399738599143358
ssS'226443'
p56
(dp57
g4
F0.25
sg5
F0.32291666666666663
sg6
F0.13151041666666663
sg7
F0.70442708333333326
ssS'231691'
p58
(dp59
g4
F0.25
sg5
F0.375
sg6
F0.140625
sg7
F0.765625
ssS'231690'
p60
(dp61
g4
F0.5
sg5
F0
sg6
F0
sg7
F0.5
ssS'231693'
p62
(dp63
g4
F0.1111111111111111
sg5
F0.14444444444444443
sg6
F0.06998285322359396
sg7
F0.32553840877914952
ssS'231692'
p64
(dp65
g4
F0.039999999999999994
sg5
F0.065277229437229453
sg6
F0.031835154738479407
sg7
F0.13711238417570887
ssS'231695'
p66
(dp67
g4
F0.10000000000000003
sg5
F0.12533333333333332
sg6
F0.053855555555555559
sg7
F0.27918888888888893
ssS'231697'
p68
(dp69
g4
F0.125
sg5
F0.16562499999999999
sg6
F0.07693576388888887
sg7
F0.36756076388888892
ssS'231696'
p70
(dp71
g4
F0.055555555555555552
sg5
F0.086970899470899476
sg6
F0.042718652018420539
sg7
F0.18524510704487557
ssS'231699'
p72
(dp73
g4
F0.16666666666666669
sg5
F0.12962962962962962
sg6
F0.044753086419753091
sg7
F0.34104938271604934
ssS'238200'
p74
(dp75
g4
F0.25
sg5
F0.125
sg6
F0.03125
sg7
F0.40625
ssS'233833'
p76
(dp77
g4
F0.1111111111111111
sg5
F0.13497942386831274
sg6
F0.057805212620027434
sg7
F0.30389574759945126
ssS'236787'
p78
(dp79
g4
F0.20000000000000004
sg5
F0.31200000000000006
sg6
F0.126
sg7
F0.63800000000000012
ssS'223467'
p80
(dp81
g4
F0.083333333333333356
sg5
F0.12853835978835979
sg6
F0.060220104245401855
sg7
F0.27209179736709499
ssS'232990'
p82
(dp83
g4
F0.090909090909090912
sg5
F0.1023219205037387
sg6
F0.061945990517419093
sg7
F0.25517700193024873
ssS'235178'
p84
(dp85
g4
F0.16666666666666669
sg5
F0.27037037037037037
sg6
F0.11166666666666664
sg7
F0.54870370370370369
ssS'235179'
p86
(dp87
g4
F0.10000000000000003
sg5
F0.15537301587301589
sg6
F0.083869801902242372
sg7
F0.33924281777525828
ssS'238347'
p88
(dp89
g4
F0.066666666666666666
sg5
F0.077333333333333337
sg6
F0.035928395061728395
sg7
F0.17992839506172842
ssS'203843'
p90
(dp91
g4
F0.14285714285714285
sg5
F0.17551020408163262
sg6
F0.087222222222222215
sg7
F0.40558956916099764
ssS'201424'
p92
(dp93
g4
F0.10000000000000003
sg5
F0.14180952380952383
sg6
F0.068986394557823127
sg7
F0.31079591836734699
ssS'201426'
p94
(dp95
g4
F0.083333333333333356
sg5
F0.13417107583774249
sg6
F0.063199518490523784
sg7
F0.28070392766159963
ssS'195951'
p96
(dp97
g4
F0.066666666666666666
sg5
F0.11609459676126341
sg6
F0.054149374693590657
sg7
F0.23691063812152074
ssS'237421'
p98
(dp99
g4
F0.5
sg5
F0.5
sg6
F0.125
sg7
F1.125
ssS'225027'
p100
(dp101
g4
F0.071428571428571425
sg5
F0.11213556851311952
sg6
F0.051217772398074873
sg7
F0.23478191233976584
ssS'201021'
p102
(dp103
g4
F0.10000000000000003
sg5
F0.16157142857142859
sg6
F0.072772505668934243
sg7
F0.33434393424036285
ssS'204009'
p104
(dp105
g4
F0.090909090909090912
sg5
F0.12436048799685165
sg6
F0.058584453064972564
sg7
F0.27385403197091512
ssS'231739'
p106
(dp107
g4
F0.20000000000000004
sg5
F0.1866666666666667
sg6
F0.064444444444444457
sg7
F0.45111111111111118
ssS'231730'
p108
(dp109
g4
F0.050000000000000031
sg5
F0.070107142857142854
sg6
F0.034072888321995475
sg7
F0.15418003117913837
ssS'227417'
p110
(dp111
g4
F0.125
sg5
F0.17418154761904761
sg6
F0.090068647250566874
sg7
F0.38925019486961443
ssS'231736'
p112
(dp113
g4
F0.16666666666666669
sg5
F0.22962962962962963
sg6
F0.13006172839506175
sg7
F0.52635802469135806
ssS'231737'
p114
(dp115
g4
F0.043478260869565209
sg5
F0.053446154769406187
sg6
F0.027164170716245609
sg7
F0.124088586355217
ssS'231734'
p116
(dp117
g4
F0.16666666666666669
sg5
F0.23240740740740737
sg6
F0.1065046296296296
sg7
F0.50557870370370361
ssS'231735'
p118
(dp119
g4
F0.5
sg5
F0
sg6
F0
sg7
F0.5
ssS'237029'
p120
(dp121
g4
F0.1111111111111111
sg5
F0.12592592592592591
sg6
F0.058010973936899871
sg7
F0.2950480109739369
ssS'232725'
p122
(dp123
g4
F0.25
sg5
F0.125
sg6
F0.03125
sg7
F0.40625
ssS'232859'
p124
(dp125
g4
F0.125
sg5
F0.13802083333333331
sg6
F0.050021701388888881
sg7
F0.31304253472222221
ssS'231729'
p126
(dp127
g4
F0.090909090909090912
sg5
F0.12532467532467534
sg6
F0.056186529019321224
sg7
F0.27242029525308747
ssS'238199'
p128
(dp129
g4
F0.25
sg5
F0.25
sg6
F0.083333333333333329
sg7
F0.58333333333333337
ssS'231666'
p130
(dp131
g4
F0.1111111111111111
sg5
F0.15202821869488534
sg6
F0.066312813191120062
sg7
F0.32945214299711645
ssS'231721'
p132
(dp133
g4
F0.25
sg5
F0.32291666666666663
sg6
F0.13151041666666663
sg7
F0.70442708333333326
ssS'231720'
p134
(dp135
g4
F0.25
sg5
F0.25
sg6
F0.083333333333333329
sg7
F0.58333333333333337
ssS'231723'
p136
(dp137
g4
F0.16666666666666669
sg5
F0.14814814814814814
sg6
F0.04783950617283951
sg7
F0.36265432098765432
ssS'231722'
p138
(dp139
g4
F1
sg5
F0
sg6
F0
sg7
F1
ssS'231725'
p140
(dp141
g4
F0.090909090909090912
sg5
F0.12184179456906731
sg6
F0.052440171660950878
sg7
F0.26519105713910912
ssS'234953'
p142
(dp143
g4
F0.20000000000000004
sg5
F0.080000000000000016
sg6
F0.020000000000000004
sg7
F0.30000000000000004
ssS'231727'
p144
(dp145
g4
F0.1111111111111111
sg5
F0.16437389770723101
sg6
F0.077904034041600179
sg7
F0.35338904285994233
ssS'231726'
p146
(dp147
g4
F1
sg5
F0
sg6
F0
sg7
F1
ssS'231717'
p148
(dp149
g4
F0.1111111111111111
sg5
F0.11992945326278659
sg6
F0.089989082052574124
sg7
F0.3210296464264718
ssS'231682'
p150
(dp151
g4
F0.20000000000000004
sg5
F0.080000000000000016
sg6
F0.020000000000000004
sg7
F0.30000000000000004
ssS'234019'
p152
(dp153
g4
F0.20000000000000004
sg5
F0.29066666666666668
sg6
F0.11973333333333336
sg7
F0.61040000000000005
ssS'231680'
p154
(dp155
g4
F0.33333333333333331
sg5
F0.22222222222222221
sg6
F0.055555555555555552
sg7
F0.61111111111111116
ssS'231714'
p156
(dp157
g4
F0.25
sg5
F0.29166666666666663
sg6
F0.10069444444444442
sg7
F0.64236111111111105
ssS'231715'
p158
(dp159
g4
F0.125
sg5
F0.17470238095238094
sg6
F0.07863945578231292
sg7
F0.37834183673469385
ssS'231716'
p160
(dp161
g4
F1
sg5
F0
sg6
F0
sg7
F1
ssS'234952'
p162
(dp163
g4
F0.25
sg5
F0.32291666666666663
sg6
F0.13151041666666663
sg7
F0.70442708333333326
ssS'231710'
p164
(dp165
g4
F0.33333333333333331
sg5
F0.37037037037037035
sg6
F0.13580246913580246
sg7
F0.83950617283950613
ssS'231712'
p166
(dp167
g4
F0.10000000000000003
sg5
F0.16245238095238096
sg6
F0.08430452097505671
sg7
F0.34675690192743769
ssS'231718'
p168
(dp169
g4
F0.1111111111111111
sg5
F0.13621399176954732
sg6
F0.065099451303155004
sg7
F0.31242455418381343
ssS'231719'
p170
(dp171
g4
F0.10000000000000003
sg5
F0.12861904761904766
sg6
F0.089323072562358288
sg7
F0.317942120181406
ssS'234604'
p172
(dp173
g4
F0.16666666666666669
sg5
F0.092592592592592587
sg6
F0.033950617283950615
sg7
F0.2932098765432099
ssS'231703'
p174
(dp175
g4
F0.071428571428571425
sg5
F0.1023404599935212
sg6
F0.056637161856428121
sg7
F0.23040619327852074
ssS'231702'
p176
(dp177
g4
F0.33333333333333331
sg5
F0.22222222222222221
sg6
F0.055555555555555552
sg7
F0.61111111111111116
ssS'231701'
p178
(dp179
g4
F0.14285714285714285
sg5
F0.18911564625850338
sg6
F0.10422902494331064
sg7
F0.43620181405895686
ssS'231700'
p180
(dp181
g4
F0.20000000000000004
sg5
F0.22666666666666674
sg6
F0.087222222222222243
sg7
F0.51388888888888895
ssS'231706'
p182
(dp183
g4
F0.090909090909090912
sg5
F0.15081332808605538
sg6
F0.070748370897180418
sg7
F0.31247078989232668
ssS'231705'
p184
(dp185
g4
F0.066666666666666666
sg5
F0.11007760141093473
sg6
F0.05542948615660255
sg7
F0.23217375423420394
ssS'231704'
p186
(dp187
g4
F0.10000000000000003
sg5
F0.13400000000000001
sg6
F0.055794444444444445
sg7
F0.28979444444444447
ssS'231709'
p188
(dp189
g4
F0.125
sg5
F0.15156249999999999
sg6
F0.063988715277777761
sg7
F0.34055121527777776
ssS'231708'
p190
(dp191
g4
F0.090909090909090912
sg5
F0.12176308539944902
sg6
F0.053186409550045929
sg7
F0.26585858585858585
ssS'219343'
p192
(dp193
g4
F0.055555555555555552
sg5
F0.087940694422175919
sg6
F0.040621622733181428
sg7
F0.1841178727109129
ssS'231668'
p194
(dp195
g4
F0.14285714285714285
sg5
F0.2040816326530612
sg6
F0.088718820861677997
sg7
F0.43565759637188201
ssS'231669'
p196
(dp197
g4
F0.076923076923076941
sg5
F0.11278763971071666
sg6
F0.058159608079479876
sg7
F0.24787032471327347
ssS'201020'
p198
(dp199
g4
F0.083333333333333356
sg5
F0.12205687830687829
sg6
F0.058927449452003011
sg7
F0.26431766109221466
ssS'203838'
p200
(dp201
g4
F0.1111111111111111
sg5
F0.167254556143445
sg6
F0.080742070490747733
sg7
F0.35910773774530386
ssS'236759'
p202
(dp203
g4
F0.1111111111111111
sg5
F0.16543209876543211
sg6
F0.068065843621399183
sg7
F0.34460905349794241
ss.