(dp1
S'113354'
p2
(dp3
S'C-Size'
p4
F0.090909090909090912
sS'C-Density'
p5
F0.084340306158487963
sS'C-Hierarchy'
p6
F0.022002383328336535
sS'C-Index'
p7
F0.1972517803959154
ssS'235950'
p8
(dp9
g4
F0.125
sg5
F0.06709280303030303
sg6
F0.010716069908363943
sg7
F0.20280887293866695
ssS'235018'
p10
(dp11
g4
F0.083333333333333356
sg5
F0.042401795735129068
sg6
F0.0073408378113344452
sg7
F0.13307596687979686
ssS'231679'
p12
(dp13
g4
F0.20000000000000004
sg5
F0.18533333333333335
sg6
F0.043711111111111124
sg7
F0.42904444444444456
ssS'231678'
p14
(dp15
g4
F0.071428571428571425
sg5
F0.051515151515151514
sg6
F0.013259449785423809
sg7
F0.13620317272914675
ssS'231677'
p16
(dp17
g4
F0.33333333333333331
sg5
F0.098412698412698396
sg6
F0.0087755102040816303
sg7
F0.44052154195011334
ssS'231674'
p18
(dp19
g4
F0.0625
sg5
F0.022099341630591633
sg6
F0.0033480230600428113
sg7
F0.087947364690634439
ssS'234672'
p20
(dp21
g4
F0.066666666666666666
sg5
F0.056437710437710446
sg6
F0.014437700659796618
sg7
F0.13754207776417371
ssS'232566'
p22
(dp23
g4
F0.125
sg5
F0.054838564213564214
sg6
F0.0088775103514010436
sg7
F0.18871607456496525
ssS'231683'
p24
(dp25
g4
F0.083333333333333356
sg5
F0.039393438351771684
sg6
F0.0062337041547862538
sg7
F0.12896047583989129
ssS'222842'
p26
(dp27
g4
F0.071428571428571425
sg5
F0.047224664569385066
sg6
F0.010505468192527557
sg7
F0.12915870419048406
ssS'231687'
p28
(dp29
g4
F0.10000000000000003
sg5
F0.071769841269841275
sg6
F0.016299689783320737
sg7
F0.18806953105316204
ssS'231684'
p30
(dp31
g4
F0.10000000000000003
sg5
F0.08834199134199136
sg6
F0.026972770375367786
sg7
F0.21531476171735919
ssS'231728'
p32
(dp33
g4
F0.16666666666666669
sg5
F0.024603174603174603
sg6
F0.0016524943310657597
sg7
F0.19292233560090705
ssS'174990'
p34
(dp35
g4
F0.1111111111111111
sg5
F0.078691712950972201
sg6
F0.015209292767077699
sg7
F0.20501211682916101
ssS'231689'
p36
(dp37
g4
F0.33333333333333331
sg5
F0.05198412698412698
sg6
F0.0025485402494331063
sg7
F0.38786600056689341
ssS'235949'
p38
(dp39
g4
F0.16666666666666669
sg5
F0.073316498316498308
sg6
F0.0088983585858585859
sg7
F0.24888152356902357
ssS'235948'
p40
(dp41
g4
F0.090909090909090912
sg5
F0.07911344853493614
sg6
F0.020929524394963914
sg7
F0.19095206383899099
ssS'235780'
p42
(dp43
g4
F0.25
sg5
F0.095138888888888884
sg6
F0.011491126543209877
sg7
F0.35663001543209877
ssS'201423'
p44
(dp45
g4
F0.20000000000000004
sg5
F0.079913419913419922
sg6
F0.012586767489364895
sg7
F0.29250018740278483
ssS'235385'
p46
(dp47
g4
F0.083333333333333356
sg5
F0.040450637325637327
sg6
F0.0078417322478807842
sg7
F0.13162570290685147
ssS'232218'
p48
(dp49
g4
F0.0625
sg5
F0.061006623584748579
sg6
F0.019046576486111494
sg7
F0.14255320007086009
ssS'232213'
p50
(dp51
g4
F0.125
sg5
F0.043926804626532888
sg6
F0.0048973181120782212
sg7
F0.17382412273861111
ssS'231393'
p52
(dp53
g4
F0.0625
sg5
F0.061119947760572751
sg6
F0.017312258400404047
sg7
F0.14093220616097679
ssS'231394'
p54
(dp55
g4
F0.083333333333333356
sg5
F0.046839576318742977
sg6
F0.0075662998841884033
sg7
F0.13773920953626476
ssS'226443'
p56
(dp57
g4
F0.25
sg5
F0.11201298701298702
sg6
F0.016121184010794407
sg7
F0.37813417102378144
ssS'231691'
p58
(dp59
g4
F0.25
sg5
F0.15016233766233766
sg6
F0.022738130376117386
sg7
F0.42290046803845505
ssS'231690'
p60
(dp61
g4
F0.5
sg5
F0
sg6
F0
sg7
F0.5
ssS'231693'
p62
(dp63
g4
F0.1111111111111111
sg5
F0.053935180344198044
sg6
F0.011520735829459283
sg7
F0.17656702728476842
ssS'231692'
p64
(dp65
g4
F0.039999999999999994
sg5
F0.039169526512135198
sg6
F0.012383664908849266
sg7
F0.091553191420984448
ssS'231695'
p66
(dp67
g4
F0.10000000000000003
sg5
F0.042802647593951949
sg6
F0.0065503258356080975
sg7
F0.14935297342956008
ssS'231697'
p68
(dp69
g4
F0.125
sg5
F0.04798479750925403
sg6
F0.0057294441850521353
sg7
F0.17871424169430616
ssS'231696'
p70
(dp71
g4
F0.055555555555555552
sg5
F0.04469158413602857
sg6
F0.011320223537652763
sg7
F0.11156736322923688
ssS'231699'
p72
(dp73
g4
F0.16666666666666669
sg5
F0.029776936026936023
sg6
F0.0023081389972961939
sg7
F0.1987517416908989
ssS'238200'
p74
(dp75
g4
F0.25
sg5
F0.057291666666666664
sg6
F0.0079210069444444441
sg7
F0.3152126736111111
ssS'233833'
p76
(dp77
g4
F0.1111111111111111
sg5
F0.03671726079133486
sg6
F0.0039042022863705296
sg7
F0.1517325741888165
ssS'236787'
p78
(dp79
g4
F0.20000000000000004
sg5
F0.19047619047619052
sg6
F0.04639478458049888
sg7
F0.43687097505668943
ssS'223467'
p80
(dp81
g4
F0.083333333333333356
sg5
F0.063416406124739449
sg6
F0.01466929867623936
sg7
F0.16141903813431216
ssS'232990'
p82
(dp83
g4
F0.090909090909090912
sg5
F0.030966354681769698
sg6
F0.0046448735445193054
sg7
F0.12652031913537992
ssS'235178'
p84
(dp85
g4
F0.16666666666666669
sg5
F0.17837301587301585
sg6
F0.048560445011337862
sg7
F0.39360012755102042
ssS'235179'
p86
(dp87
g4
F0.10000000000000003
sg5
F0.085833333333333359
sg6
F0.024286920339761257
sg7
F0.21012025367309467
ssS'238347'
p88
(dp89
g4
F0.066666666666666666
sg5
F0.031041750841750846
sg6
F0.0073273468948746711
sg7
F0.10503576440329218
ssS'203843'
p90
(dp91
g4
F0.14285714285714285
sg5
F0.056084505064096887
sg6
F0.0080525766993848232
sg7
F0.20699422462062458
ssS'201424'
p92
(dp93
g4
F0.10000000000000003
sg5
F0.079436507936507944
sg6
F0.020383457734945831
sg7
F0.1998199656714538
ssS'201426'
p94
(dp95
g4
F0.083333333333333356
sg5
F0.062398037918871239
sg6
F0.01294284256591011
sg7
F0.1586742138181147
ssS'195951'
p96
(dp97
g4
F0.066666666666666666
sg5
F0.072364610697944032
sg6
F0.021135521997822888
sg7
F0.16016679936243358
ssS'237421'
p98
(dp99
g4
F0.5
sg5
F0.05333333333333333
sg6
F0.0015111111111111111
sg7
F0.55484444444444447
ssS'225027'
p100
(dp101
g4
F0.071428571428571425
sg5
F0.059011764879111812
sg6
F0.013981303709781548
sg7
F0.14442164001746477
ssS'201021'
p102
(dp103
g4
F0.10000000000000003
sg5
F0.073368831168831181
sg6
F0.014997101117857613
sg7
F0.18836593228668885
ssS'204009'
p104
(dp105
g4
F0.090909090909090912
sg5
F0.051869342778433691
sg6
F0.010652577491051519
sg7
F0.15343101117857613
ssS'231739'
p106
(dp107
g4
F0.20000000000000004
sg5
F0.035428571428571434
sg6
F0.002379591836734694
sg7
F0.23780816326530618
ssS'231730'
p108
(dp109
g4
F0.050000000000000031
sg5
F0.039696946169772269
sg6
F0.011637925758721541
sg7
F0.10133487192849384
ssS'227417'
p110
(dp111
g4
F0.125
sg5
F0.057242063492063483
sg6
F0.008431267617000502
sg7
F0.19067333110906398
ssS'231736'
p112
(dp113
g4
F0.16666666666666669
sg5
F0.060914702581369239
sg6
F0.0091931782754594189
sg7
F0.23677454752349536
ssS'231737'
p114
(dp115
g4
F0.043478260869565209
sg5
F0.026208370499485805
sg6
F0.0071079367062229018
sg7
F0.076794568075273906
ssS'231734'
p116
(dp117
g4
F0.16666666666666669
sg5
F0.088888888888888878
sg6
F0.014470164609053496
sg7
F0.27002572016460902
ssS'231735'
p118
(dp119
g4
F0.5
sg5
F0
sg6
F0
sg7
F0.5
ssS'237029'
p120
(dp121
g4
F0.1111111111111111
sg5
F0.049294464109278922
sg6
F0.0082855533793690268
sg7
F0.16869112859975907
ssS'232725'
p122
(dp123
g4
F0.25
sg5
F0.031746031746031744
sg6
F0.0020471151423532372
sg7
F0.28379314688838497
ssS'232859'
p124
(dp125
g4
F0.125
sg5
F0.060369318181818191
sg6
F0.011566266356749313
sg7
F0.19693558453856749
ssS'231729'
p126
(dp127
g4
F0.090909090909090912
sg5
F0.064078566062037143
sg6
F0.016680048366438834
sg7
F0.17166770533756687
ssS'238199'
p128
(dp129
g4
F0.25
sg5
F0.04836956521739131
sg6
F0.0032390122873345944
sg7
F0.30160857750472592
ssS'231666'
p130
(dp131
g4
F0.1111111111111111
sg5
F0.056574563981971374
sg6
F0.0091193061815489796
sg7
F0.17680498127463146
ssS'231721'
p132
(dp133
g4
F0.25
sg5
F0.13958333333333334
sg6
F0.024522569444444448
sg7
F0.41410590277777781
ssS'231720'
p134
(dp135
g4
F0.25
sg5
F0.06666666666666668
sg6
F0.0059722222222222242
sg7
F0.32263888888888886
ssS'231723'
p136
(dp137
g4
F0.16666666666666669
sg5
F0.034441638608305271
sg6
F0.0025802090064505887
sg7
F0.20368851428142254
ssS'231722'
p138
(dp139
g4
F1
sg5
F0
sg6
F0
sg7
F1
ssS'231725'
p140
(dp141
g4
F0.090909090909090912
sg5
F0.056306999982889315
sg6
F0.012476799160524819
sg7
F0.15969289005250506
ssS'234953'
p142
(dp143
g4
F0.20000000000000004
sg5
F0.010666666666666668
sg6
F0.00035555555555555563
sg7
F0.21102222222222225
ssS'231727'
p144
(dp145
g4
F0.1111111111111111
sg5
F0.053475054199691875
sg6
F0.0081840278905746904
sg7
F0.17277019320137765
ssS'231726'
p146
(dp147
g4
F1
sg5
F0
sg6
F0
sg7
F1
ssS'231717'
p148
(dp149
g4
F0.1111111111111111
sg5
F0.041678188216030393
sg6
F0.0076738483671035997
sg7
F0.16046314769424511
ssS'231682'
p150
(dp151
g4
F0.20000000000000004
sg5
F0.01388888888888889
sg6
F0.0006500771604938272
sg7
F0.21453896604938277
ssS'234019'
p152
(dp153
g4
F0.20000000000000004
sg5
F0.13800000000000001
sg6
F0.027574999999999999
sg7
F0.36557500000000009
ssS'231680'
p154
(dp155
g4
F0.33333333333333331
sg5
F0.083333333333333329
sg6
F0.0086805555555555559
sg7
F0.42534722222222221
ssS'231714'
p156
(dp157
g4
F0.25
sg5
F0.060075914423740509
sg6
F0.0045004699702467276
sg7
F0.31457638439398722
ssS'231715'
p158
(dp159
g4
F0.125
sg5
F0.1159970238095238
sg6
F0.034070383361677996
sg7
F0.27506740717120182
ssS'231716'
p160
(dp161
g4
F1
sg5
F0
sg6
F0
sg7
F1
ssS'234952'
p162
(dp163
g4
F0.25
sg5
F0.058189102564102563
sg6
F0.0042656398956278764
sg7
F0.31245474245973048
ssS'231710'
p164
(dp165
g4
F0.33333333333333331
sg5
F0.068706387546967257
sg6
F0.0059070482650962937
sg7
F0.4079467691453969
ssS'231712'
p166
(dp167
g4
F0.10000000000000003
sg5
F0.10490476190476193
sg6
F0.035109690129495337
sg7
F0.24001445203425731
ssS'231718'
p168
(dp169
g4
F0.1111111111111111
sg5
F0.063864393494023119
sg6
F0.013698082399397802
sg7
F0.18867358700453202
ssS'231719'
p170
(dp171
g4
F0.10000000000000003
sg5
F0.054265010351966875
sg6
F0.019789173300069868
sg7
F0.17405418365203679
ssS'234604'
p172
(dp173
g4
F0.16666666666666669
sg5
F0.029629629629629627
sg6
F0.0036419753086419752
sg7
F0.19993827160493827
ssS'231703'
p174
(dp175
g4
F0.071428571428571425
sg5
F0.04082042698502325
sg6
F0.0095149998841918895
sg7
F0.12176399829778656
ssS'231702'
p176
(dp177
g4
F0.33333333333333331
sg5
F0.031884057971014484
sg6
F0.0013211510186935517
sg7
F0.36653854232304139
ssS'231701'
p178
(dp179
g4
F0.14285714285714285
sg5
F0.094897959183673455
sg6
F0.023741969009826148
sg7
F0.26149707105064246
ssS'231700'
p180
(dp181
g4
F0.20000000000000004
sg5
F0.09600000000000003
sg6
F0.019459259259259263
sg7
F0.31545925925925933
ssS'231706'
p182
(dp183
g4
F0.090909090909090912
sg5
F0.089857250187828697
sg6
F0.02475006450682634
sg7
F0.20551640560374596
ssS'231705'
p184
(dp185
g4
F0.066666666666666666
sg5
F0.075184223184223187
sg6
F0.0261987981003373
sg7
F0.16804968795122713
ssS'231704'
p186
(dp187
g4
F0.10000000000000003
sg5
F0.056972175167827349
sg6
F0.010069352374154456
sg7
F0.16704152754198184
ssS'231709'
p188
(dp189
g4
F0.125
sg5
F0.056202651515151518
sg6
F0.0082079435453014989
sg7
F0.18941059506045302
ssS'231708'
p190
(dp191
g4
F0.090909090909090912
sg5
F0.053042280512636236
sg6
F0.0098027178710787012
sg7
F0.15375408929280585
ssS'219343'
p192
(dp193
g4
F0.055555555555555552
sg5
F0.04504970338303671
sg6
F0.010915396606712044
sg7
F0.11152065554530431
ssS'231668'
p194
(dp195
g4
F0.14285714285714285
sg5
F0.085734900020614291
sg6
F0.016907015943812477
sg7
F0.24549905882156961
ssS'231669'
p196
(dp197
g4
F0.076923076923076941
sg5
F0.05861621284698209
sg6
F0.015864806283660347
sg7
F0.15140409605371938
ssS'201020'
p198
(dp199
g4
F0.083333333333333356
sg5
F0.05411871693121692
sg6
F0.011326729188974972
sg7
F0.14877877945352525
ssS'203838'
p200
(dp201
g4
F0.1111111111111111
sg5
F0.064631322038729441
sg6
F0.011556953131424698
sg7
F0.18729938628126525
ssS'236759'
p202
(dp203
g4
F0.1111111111111111
sg5
F0.055523369098248322
sg6
F0.0078183201061528124
sg7
F0.17445280031551225
ss.